(dp1
S'head'
p2
(dp3
S'refine_max'
p4
I200
sS'wearing_level_max'
p5
I120
sS'wearing_level_min'
p6
I0
sS'refine_min'
p7
I0
sS'select_data'
p8
(lp9
I01
aI01
aI01
aI01
aI01
asS'onoff'
p10
I00
ssS'potion'
p11
(dp12
g8
(lp13
I01
aI01
aI01
asg10
I01
ssS'skill_book'
p14
(dp15
g8
(lp16
I01
aI01
aI01
aI01
aI01
aI01
asg10
I01
ssS'armor'
p17
(dp18
g4
I200
sg5
I120
sg6
I0
sg7
I0
sg8
(lp19
I01
aI01
aI01
aI01
aI01
asg10
I00
ssS'weapon'
p20
(dp21
g4
I200
sg5
I120
sg6
I0
sg7
I0
sg8
(lp22
I01
aI01
aI01
aI01
aI01
asg10
I00
ssS'event'
p23
(dp24
g10
I01
ssS'etc'
p25
(dp26
g8
(lp27
I01
aI01
aI01
aI01
aI01
aI01
aI01
aI01
asg10
I01
ssS'refine'
p28
(dp29
g8
(lp30
I01
aI01
aI01
asg10
I01
ssS'costume'
p31
(dp32
g8
(lp33
I01
aI01
aI01
aI01
aI01
aI01
asg10
I00
ssS'fish_mining'
p34
(dp35
g8
(lp36
I01
aI01
aI01
asg10
I01
ssS'mount_pet'
p37
(dp38
g8
(lp39
I01
aI01
aI01
aI01
asg10
I01
ssS'unique'
p40
(dp41
g8
(lp42
I01
aI01
asg10
I01
ssS'ds'
p43
(dp44
g8
(lp45
I01
aI01
asg10
I00
ssS'common'
p46
(dp47
g4
I200
sg5
I120
sg6
I0
sg7
I0
sg8
(lp48
I01
aI01
aI01
aI01
aI01
aI01
aI01
aI01
aI01
aI01
asg10
I00
ss.